target datalayout = "e-m:e-p270:32:32-p271:32:32-p272:64:64-i64:64-i128:128-f80:128-n8:16:32:64-S128"
target triple = "x86_64-pc-linux-gnu"

%struct.anon = type { [2 x double], [2 x double] }

; Function Attrs: nounwind uwtable
define internal i32 @func(ptr noundef %0, ptr noundef %1, ptr noundef %2) #0 {
  %4 = alloca ptr, align 8
  %5 = alloca ptr, align 8
  %6 = alloca ptr, align 8
  %7 = alloca ptr, align 8
  %8 = alloca ptr, align 8
  %9 = alloca double, align 8
  %10 = alloca double, align 8
  %11 = alloca double, align 8
  %12 = alloca double, align 8
  %13 = alloca double, align 8
  %14 = alloca double, align 8
  %15 = alloca ptr, align 8
  %16 = alloca ptr, align 8
  %17 = alloca ptr, align 8
  store ptr %0, ptr %4, align 8, !tbaa !4
  store ptr %1, ptr %5, align 8, !tbaa !4
  store ptr %2, ptr %6, align 8, !tbaa !9
  call void @llvm.lifetime.start.p0(i64 8, ptr %7) #6
  call void @llvm.lifetime.start.p0(i64 8, ptr %8) #6
  call void @llvm.lifetime.start.p0(i64 8, ptr %9) #6
  call void @llvm.lifetime.start.p0(i64 8, ptr %10) #6
  call void @llvm.lifetime.start.p0(i64 8, ptr %11) #6
  call void @llvm.lifetime.start.p0(i64 8, ptr %12) #6
  call void @llvm.lifetime.start.p0(i64 8, ptr %13) #6
  call void @llvm.lifetime.start.p0(i64 8, ptr %14) #6
  call void @llvm.lifetime.start.p0(i64 8, ptr %15) #6
  call void @llvm.lifetime.start.p0(i64 8, ptr %16) #6
  call void @llvm.lifetime.start.p0(i64 8, ptr %17) #6
  %18 = load ptr, ptr %6, align 8, !tbaa !9
  store ptr %18, ptr %17, align 8, !tbaa !9
  %19 = load ptr, ptr %17, align 8, !tbaa !9
  %20 = getelementptr inbounds nuw %struct.anon, ptr %19, i32 0, i32 0
  %21 = getelementptr inbounds [2 x double], ptr %20, i64 0, i64 0
  store ptr %21, ptr %15, align 8, !tbaa !33
  %22 = load ptr, ptr %17, align 8, !tbaa !9
  %23 = getelementptr inbounds nuw %struct.anon, ptr %22, i32 0, i32 1
  %24 = getelementptr inbounds [2 x double], ptr %23, i64 0, i64 0
  store ptr %24, ptr %16, align 8, !tbaa !33
  %25 = load ptr, ptr %4, align 8, !tbaa !4
  %26 = call ptr @N_VGetArrayPointer(ptr noundef %25)
  store ptr %26, ptr %7, align 8, !tbaa !33
  %27 = load ptr, ptr %5, align 8, !tbaa !4
  %28 = call ptr @N_VGetArrayPointer(ptr noundef %27)
  store ptr %28, ptr %8, align 8, !tbaa !33
  %29 = load ptr, ptr %7, align 8, !tbaa !33
  %30 = getelementptr inbounds double, ptr %29, i64 0
  %31 = load double, ptr %30, align 8, !tbaa !16
  store double %31, ptr %9, align 8, !tbaa !16
  %32 = load ptr, ptr %7, align 8, !tbaa !33
  %33 = getelementptr inbounds double, ptr %32, i64 1
  %34 = load double, ptr %33, align 8, !tbaa !16
  store double %34, ptr %12, align 8, !tbaa !16
  %35 = load ptr, ptr %7, align 8, !tbaa !33
  %36 = getelementptr inbounds double, ptr %35, i64 2
  %37 = load double, ptr %36, align 8, !tbaa !16
  store double %37, ptr %10, align 8, !tbaa !16
  %38 = load ptr, ptr %7, align 8, !tbaa !33
  %39 = getelementptr inbounds double, ptr %38, i64 3
  %40 = load double, ptr %39, align 8, !tbaa !16
  store double %40, ptr %11, align 8, !tbaa !16
  %41 = load ptr, ptr %7, align 8, !tbaa !33
  %42 = getelementptr inbounds double, ptr %41, i64 4
  %43 = load double, ptr %42, align 8, !tbaa !16
  store double %43, ptr %13, align 8, !tbaa !16
  %44 = load ptr, ptr %7, align 8, !tbaa !33
  %45 = getelementptr inbounds double, ptr %44, i64 5
  %46 = load double, ptr %45, align 8, !tbaa !16
  store double %46, ptr %14, align 8, !tbaa !16
  %47 = load double, ptr %9, align 8, !tbaa !16
  %48 = load double, ptr %12, align 8, !tbaa !16
  %49 = fmul double %47, %48
  %50 = call double @sin(double noundef %49) #6, !tbaa !14
  %51 = load double, ptr %12, align 8, !tbaa !16
  %52 = fmul double 2.500000e-01, %51
  %53 = fdiv double %52, 0x400921FB4D12D84A
  %54 = fneg double %53
  %55 = call double @llvm.fmuladd.f64(double 5.000000e-01, double %50, double %54)
  %56 = load double, ptr %9, align 8, !tbaa !16
  %57 = call double @llvm.fmuladd.f64(double -5.000000e-01, double %56, double %55)
  %58 = load ptr, ptr %8, align 8, !tbaa !33
  %59 = getelementptr inbounds double, ptr %58, i64 0
  store double %57, ptr %59, align 8, !tbaa !16
  %60 = load double, ptr %9, align 8, !tbaa !16
  %61 = fmul double 2.000000e+00, %60
  %62 = call double @exp(double noundef %61) #6, !tbaa !14
  %63 = fsub double %62, 0x4005BF0A87427F01
  %64 = load double, ptr %12, align 8, !tbaa !16
  %65 = fmul double 0x4005BF0A87427F01, %64
  %66 = fdiv double %65, 0x400921FB4D12D84A
  %67 = call double @llvm.fmuladd.f64(double 0x3FED7419F18C3613, double %63, double %66)
  %68 = load double, ptr %9, align 8, !tbaa !16
  %69 = call double @llvm.fmuladd.f64(double 0xC015BF0A87427F01, double %68, double %67)
  %70 = load ptr, ptr %8, align 8, !tbaa !33
  %71 = getelementptr inbounds double, ptr %70, i64 1
  store double %69, ptr %71, align 8, !tbaa !16
  %72 = load double, ptr %10, align 8, !tbaa !16
  %73 = load double, ptr %9, align 8, !tbaa !16
  %74 = fsub double %72, %73
  %75 = load ptr, ptr %15, align 8, !tbaa !33
  %76 = getelementptr inbounds double, ptr %75, i64 0
  %77 = load double, ptr %76, align 8, !tbaa !16
  %78 = fadd double %74, %77
  %79 = load ptr, ptr %8, align 8, !tbaa !33
  %80 = getelementptr inbounds double, ptr %79, i64 2
  store double %78, ptr %80, align 8, !tbaa !16
  %81 = load double, ptr %11, align 8, !tbaa !16
  %82 = load double, ptr %9, align 8, !tbaa !16
  %83 = fsub double %81, %82
  %84 = load ptr, ptr %16, align 8, !tbaa !33
  %85 = getelementptr inbounds double, ptr %84, i64 0
  %86 = load double, ptr %85, align 8, !tbaa !16
  %87 = fadd double %83, %86
  %88 = load ptr, ptr %8, align 8, !tbaa !33
  %89 = getelementptr inbounds double, ptr %88, i64 3
  store double %87, ptr %89, align 8, !tbaa !16
  %90 = load double, ptr %13, align 8, !tbaa !16
  %91 = load double, ptr %12, align 8, !tbaa !16
  %92 = fsub double %90, %91
  %93 = load ptr, ptr %15, align 8, !tbaa !33
  %94 = getelementptr inbounds double, ptr %93, i64 1
  %95 = load double, ptr %94, align 8, !tbaa !16
  %96 = fadd double %92, %95
  %97 = load ptr, ptr %8, align 8, !tbaa !33
  %98 = getelementptr inbounds double, ptr %97, i64 4
  store double %96, ptr %98, align 8, !tbaa !16
  %99 = load double, ptr %14, align 8, !tbaa !16
  %100 = load double, ptr %12, align 8, !tbaa !16
  %101 = fsub double %99, %100
  %102 = load ptr, ptr %16, align 8, !tbaa !33
  %103 = getelementptr inbounds double, ptr %102, i64 1
  %104 = load double, ptr %103, align 8, !tbaa !16
  %105 = fadd double %101, %104
  %106 = load ptr, ptr %8, align 8, !tbaa !33
  %107 = getelementptr inbounds double, ptr %106, i64 5
  store double %105, ptr %107, align 8, !tbaa !16
  call void @llvm.lifetime.end.p0(i64 8, ptr %17) #6
  call void @llvm.lifetime.end.p0(i64 8, ptr %16) #6
  call void @llvm.lifetime.end.p0(i64 8, ptr %15) #6
  call void @llvm.lifetime.end.p0(i64 8, ptr %14) #6
  call void @llvm.lifetime.end.p0(i64 8, ptr %13) #6
  call void @llvm.lifetime.end.p0(i64 8, ptr %12) #6
  call void @llvm.lifetime.end.p0(i64 8, ptr %11) #6
  call void @llvm.lifetime.end.p0(i64 8, ptr %10) #6
  call void @llvm.lifetime.end.p0(i64 8, ptr %9) #6
  call void @llvm.lifetime.end.p0(i64 8, ptr %8) #6
  call void @llvm.lifetime.end.p0(i64 8, ptr %7) #6
  ret i32 0
}