; Function Attrs: nounwind uwtable
define internal noundef i32 @func(ptr noundef %0, ptr noundef %1, ptr noundef readonly captures(none) %2) #0 {
  %4 = getelementptr inbounds nuw i8, ptr %2, i64 16
  %5 = tail call ptr @N_VGetArrayPointer(ptr noundef %0) #11
  %6 = tail call ptr @N_VGetArrayPointer(ptr noundef %1) #11
  %7 = load double, ptr %5, align 8, !tbaa !9
  %8 = getelementptr inbounds nuw i8, ptr %5, i64 8
  %9 = load double, ptr %8, align 8, !tbaa !9
  %10 = getelementptr inbounds nuw i8, ptr %5, i64 16
  %11 = load double, ptr %10, align 8, !tbaa !9
  %12 = getelementptr inbounds nuw i8, ptr %5, i64 24
  %13 = load double, ptr %12, align 8, !tbaa !9
  %14 = getelementptr inbounds nuw i8, ptr %5, i64 32
  %15 = load double, ptr %14, align 8, !tbaa !9
  %16 = getelementptr inbounds nuw i8, ptr %5, i64 40
  %17 = load double, ptr %16, align 8, !tbaa !9
  %18 = fmul double %7, %9
  %19 = tail call double @sin(double noundef %18) #11, !tbaa !22
  %20 = fmul double %9, 2.500000e-01
  %21 = fdiv double %20, 0xC00921FB4D12D84A
  %22 = tail call double @llvm.fmuladd.f64(double %19, double 5.000000e-01, double %21)
  %23 = tail call double @llvm.fmuladd.f64(double %7, double -5.000000e-01, double %22)
  store double %23, ptr %6, align 8, !tbaa !9
  %24 = fmul double %7, 2.000000e+00
  %25 = tail call double @exp(double noundef %24) #11, !tbaa !22
  %26 = fadd double %25, 0xC005BF0A87427F01
  %27 = fmul double %9, 0x4005BF0A87427F01
  %28 = fdiv double %27, 0x400921FB4D12D84A
  %29 = tail call double @llvm.fmuladd.f64(double %26, double 0x3FED7419F18C3613, double %28)
  %30 = tail call double @llvm.fmuladd.f64(double %7, double 0xC015BF0A87427F01, double %29)
  %31 = getelementptr inbounds nuw i8, ptr %6, i64 8
  store double %30, ptr %31, align 8, !tbaa !9
  %32 = fsub double %11, %7
  %33 = load double, ptr %2, align 8, !tbaa !9
  %34 = fadd double %32, %33
  %35 = getelementptr inbounds nuw i8, ptr %6, i64 16
  store double %34, ptr %35, align 8, !tbaa !9
  %36 = fsub double %13, %7
  %37 = load double, ptr %4, align 8, !tbaa !9
  %38 = fadd double %36, %37
  %39 = getelementptr inbounds nuw i8, ptr %6, i64 24
  store double %38, ptr %39, align 8, !tbaa !9
  %40 = fsub double %15, %9
  %41 = getelementptr inbounds nuw i8, ptr %2, i64 8
  %42 = load double, ptr %41, align 8, !tbaa !9
  %43 = fadd double %40, %42
  %44 = getelementptr inbounds nuw i8, ptr %6, i64 32
  store double %43, ptr %44, align 8, !tbaa !9
  %45 = fsub double %17, %9
  %46 = getelementptr inbounds nuw i8, ptr %2, i64 24
  %47 = load double, ptr %46, align 8, !tbaa !9
  %48 = fadd double %45, %47
  %49 = getelementptr inbounds nuw i8, ptr %6, i64 40
  store double %48, ptr %49, align 8, !tbaa !9
  ret i32 0
}